target datalayout = "e-m:e-p270:32:32-p271:32:32-p272:64:64-i64:64-i128:128-f80:128-n8:16:32:64-S128"
target triple = "x86_64-pc-linux-gnu"

%struct.pointf_s = type { double, double }

; Function Attrs: nounwind uwtable
define internal void @star_vertices(ptr noundef %0, ptr noundef %1) #0 {
  %3 = alloca ptr, align 8
  %4 = alloca ptr, align 8
  %5 = alloca i32, align 4
  %6 = alloca %struct.pointf_s, align 8
  %7 = alloca double, align 8
  %8 = alloca double, align 8
  %9 = alloca double, align 8
  %10 = alloca double, align 8
  %11 = alloca double, align 8
  %12 = alloca double, align 8
  store ptr %0, ptr %3, align 8, !tbaa !8
  store ptr %1, ptr %4, align 8, !tbaa !8
  call void @llvm.lifetime.start.p0(i64 4, ptr %5) #13
  call void @llvm.lifetime.start.p0(i64 16, ptr %6) #13
  %13 = load ptr, ptr %4, align 8, !tbaa !8
  call void @llvm.memcpy.p0.p0.i64(ptr align 8 %6, ptr align 8 %13, i64 16, i1 false), !tbaa.struct !16
  call void @llvm.lifetime.start.p0(i64 8, ptr %7) #13
  call void @llvm.lifetime.start.p0(i64 8, ptr %8) #13
  call void @llvm.lifetime.start.p0(i64 8, ptr %9) #13
  %14 = call double @sin(double noundef 0x3FEE28C731EB6950) #13, !tbaa !12
  %15 = fadd double 1.000000e+00, %14
  %16 = call double @cos(double noundef 0x3FD41B2F769CF0E0) #13, !tbaa !12
  %17 = fmul double 2.000000e+00, %16
  %18 = fdiv double %15, %17
  store double %18, ptr %9, align 8, !tbaa !17
  call void @llvm.lifetime.start.p0(i64 8, ptr %10) #13
  call void @llvm.lifetime.start.p0(i64 8, ptr %11) #13
  call void @llvm.lifetime.start.p0(i64 8, ptr %12) #13
  store double 0x3FD41B2F769CF0E0, ptr %12, align 8, !tbaa !17
  %19 = getelementptr inbounds nuw %struct.pointf_s, ptr %6, i32 0, i32 1
  %20 = load double, ptr %19, align 8, !tbaa !23
  %21 = getelementptr inbounds nuw %struct.pointf_s, ptr %6, i32 0, i32 0
  %22 = load double, ptr %21, align 8, !tbaa !21
  %23 = fdiv double %20, %22
  store double %23, ptr %8, align 8, !tbaa !17
  %24 = load double, ptr %8, align 8, !tbaa !17
  %25 = load double, ptr %9, align 8, !tbaa !17
  %26 = fcmp ogt double %24, %25
  br i1 %26, label %27, label %33

27:                                               ; preds = %2
  %28 = getelementptr inbounds nuw %struct.pointf_s, ptr %6, i32 0, i32 1
  %29 = load double, ptr %28, align 8, !tbaa !23
  %30 = load double, ptr %9, align 8, !tbaa !17
  %31 = fdiv double %29, %30
  %32 = getelementptr inbounds nuw %struct.pointf_s, ptr %6, i32 0, i32 0
  store double %31, ptr %32, align 8, !tbaa !21
  br label %44

33:                                               ; preds = %2
  %34 = load double, ptr %8, align 8, !tbaa !17
  %35 = load double, ptr %9, align 8, !tbaa !17
  %36 = fcmp olt double %34, %35
  br i1 %36, label %37, label %43

37:                                               ; preds = %33
  %38 = getelementptr inbounds nuw %struct.pointf_s, ptr %6, i32 0, i32 0
  %39 = load double, ptr %38, align 8, !tbaa !21
  %40 = load double, ptr %9, align 8, !tbaa !17
  %41 = fmul double %39, %40
  %42 = getelementptr inbounds nuw %struct.pointf_s, ptr %6, i32 0, i32 1
  store double %41, ptr %42, align 8, !tbaa !23
  br label %43

43:                                               ; preds = %37, %33
  br label %44

44:                                               ; preds = %43, %27
  %45 = getelementptr inbounds nuw %struct.pointf_s, ptr %6, i32 0, i32 0
  %46 = load double, ptr %45, align 8, !tbaa !21
  %47 = call double @cos(double noundef 0x3FD41B2F769CF0E0) #13, !tbaa !12
  %48 = fmul double 2.000000e+00, %47
  %49 = fdiv double %46, %48
  store double %49, ptr %10, align 8, !tbaa !17
  %50 = load double, ptr %10, align 8, !tbaa !17
  %51 = call double @cos(double noundef 0x3FD41B2F769CF0E0) #13, !tbaa !12
  %52 = fmul double %50, %51
  %53 = call double @cos(double noundef 0x3FF41B2F769CF0E0) #13, !tbaa !12
  %54 = fmul double %52, %53
  %55 = call double @sin(double noundef 0x3FF41B2F769CF0E0) #13, !tbaa !12
  %56 = call double @cos(double noundef 0x3FE41B2F769CF0E0) #13, !tbaa !12
  %57 = fmul double %55, %56
  %58 = fdiv double %54, %57
  store double %58, ptr %11, align 8, !tbaa !17
  %59 = load double, ptr %10, align 8, !tbaa !17
  %60 = call double @sin(double noundef 0x3FEE28C731EB6950) #13, !tbaa !12
  %61 = fsub double 1.000000e+00, %60
  %62 = fmul double %59, %61
  %63 = fdiv double %62, 2.000000e+00
  store double %63, ptr %7, align 8, !tbaa !17
  store i32 0, ptr %5, align 4, !tbaa !12
  br label %64

64:                                               ; preds = %114, %44
  %65 = load i32, ptr %5, align 4, !tbaa !12
  %66 = icmp slt i32 %65, 10
  br i1 %66, label %67, label %117

67:                                               ; preds = %64
  %68 = load double, ptr %10, align 8, !tbaa !17
  %69 = load double, ptr %12, align 8, !tbaa !17
  %70 = call double @cos(double noundef %69) #13, !tbaa !12
  %71 = fmul double %68, %70
  %72 = load ptr, ptr %3, align 8, !tbaa !8
  %73 = load i32, ptr %5, align 4, !tbaa !12
  %74 = sext i32 %73 to i64
  %75 = getelementptr inbounds %struct.pointf_s, ptr %72, i64 %74
  %76 = getelementptr inbounds nuw %struct.pointf_s, ptr %75, i32 0, i32 0
  store double %71, ptr %76, align 8, !tbaa !21
  %77 = load double, ptr %10, align 8, !tbaa !17
  %78 = load double, ptr %12, align 8, !tbaa !17
  %79 = call double @sin(double noundef %78) #13, !tbaa !12
  %80 = load double, ptr %7, align 8, !tbaa !17
  %81 = fneg double %80
  %82 = call double @llvm.fmuladd.f64(double %77, double %79, double %81)
  %83 = load ptr, ptr %3, align 8, !tbaa !8
  %84 = load i32, ptr %5, align 4, !tbaa !12
  %85 = sext i32 %84 to i64
  %86 = getelementptr inbounds %struct.pointf_s, ptr %83, i64 %85
  %87 = getelementptr inbounds nuw %struct.pointf_s, ptr %86, i32 0, i32 1
  store double %82, ptr %87, align 8, !tbaa !23
  %88 = load double, ptr %12, align 8, !tbaa !17
  %89 = fadd double %88, 0x3FE41B2F769CF0E0
  store double %89, ptr %12, align 8, !tbaa !17
  %90 = load double, ptr %11, align 8, !tbaa !17
  %91 = load double, ptr %12, align 8, !tbaa !17
  %92 = call double @cos(double noundef %91) #13, !tbaa !12
  %93 = fmul double %90, %92
  %94 = load ptr, ptr %3, align 8, !tbaa !8
  %95 = load i32, ptr %5, align 4, !tbaa !12
  %96 = add nsw i32 %95, 1
  %97 = sext i32 %96 to i64
  %98 = getelementptr inbounds %struct.pointf_s, ptr %94, i64 %97
  %99 = getelementptr inbounds nuw %struct.pointf_s, ptr %98, i32 0, i32 0
  store double %93, ptr %99, align 8, !tbaa !21
  %100 = load double, ptr %11, align 8, !tbaa !17
  %101 = load double, ptr %12, align 8, !tbaa !17
  %102 = call double @sin(double noundef %101) #13, !tbaa !12
  %103 = load double, ptr %7, align 8, !tbaa !17
  %104 = fneg double %103
  %105 = call double @llvm.fmuladd.f64(double %100, double %102, double %104)
  %106 = load ptr, ptr %3, align 8, !tbaa !8
  %107 = load i32, ptr %5, align 4, !tbaa !12
  %108 = add nsw i32 %107, 1
  %109 = sext i32 %108 to i64
  %110 = getelementptr inbounds %struct.pointf_s, ptr %106, i64 %109
  %111 = getelementptr inbounds nuw %struct.pointf_s, ptr %110, i32 0, i32 1
  store double %105, ptr %111, align 8, !tbaa !23
  %112 = load double, ptr %12, align 8, !tbaa !17
  %113 = fadd double %112, 0x3FE41B2F769CF0E0
  store double %113, ptr %12, align 8, !tbaa !17
  br label %114

114:                                              ; preds = %67
  %115 = load i32, ptr %5, align 4, !tbaa !12
  %116 = add nsw i32 %115, 2
  store i32 %116, ptr %5, align 4, !tbaa !12
  br label %64, !llvm.loop !248

117:                                              ; preds = %64
  %118 = load ptr, ptr %4, align 8, !tbaa !8
  call void @llvm.memcpy.p0.p0.i64(ptr align 8 %118, ptr align 8 %6, i64 16, i1 false), !tbaa.struct !16
  call void @llvm.lifetime.end.p0(i64 8, ptr %12) #13
  call void @llvm.lifetime.end.p0(i64 8, ptr %11) #13
  call void @llvm.lifetime.end.p0(i64 8, ptr %10) #13
  call void @llvm.lifetime.end.p0(i64 8, ptr %9) #13
  call void @llvm.lifetime.end.p0(i64 8, ptr %8) #13
  call void @llvm.lifetime.end.p0(i64 8, ptr %7) #13
  call void @llvm.lifetime.end.p0(i64 16, ptr %6) #13
  call void @llvm.lifetime.end.p0(i64 4, ptr %5) #13
  ret void
}