; Function Attrs: nofree nounwind memory(write, argmem: readwrite) uwtable
define internal void @star_vertices(ptr noundef writeonly captures(none) %0, ptr noundef captures(none) %1) #23 {
  %.sroa.0.0.copyload = load double, ptr %1, align 8, !tbaa !4
  %.sroa.8.0..sroa_idx = getelementptr inbounds nuw i8, ptr %1, i64 8
  %.sroa.8.0.copyload = load double, ptr %.sroa.8.0..sroa_idx, align 8, !tbaa !4
  %3 = fdiv double %.sroa.8.0.copyload, %.sroa.0.0.copyload
  %4 = fcmp ogt double %3, 0x3FEE6F0E13445500
  br i1 %4, label %5, label %7

5:                                                ; preds = %2
  %6 = fdiv double %.sroa.8.0.copyload, 0x3FEE6F0E13445500
  br label %11

7:                                                ; preds = %2
  %8 = fcmp olt double %3, 0x3FEE6F0E13445500
  br i1 %8, label %9, label %11

9:                                                ; preds = %7
  %10 = fmul double %.sroa.0.0.copyload, 0x3FEE6F0E13445500
  br label %11

11:                                               ; preds = %7, %9, %5
  %.sroa.0.0 = phi double [ %6, %5 ], [ %.sroa.0.0.copyload, %9 ], [ %.sroa.0.0.copyload, %7 ]
  %.sroa.8.0 = phi double [ %.sroa.8.0.copyload, %5 ], [ %10, %9 ], [ %.sroa.8.0.copyload, %7 ]
  %12 = fdiv double %.sroa.0.0, 0x3FFE6F0E134454FF
  %13 = fmul double %12, 0x3FEE6F0E134454FF
  %14 = fmul double %13, 0x3FD3C6EF372FE950
  %15 = fdiv double %14, 0x3FE89F188BDCD7AF
  %16 = fmul double %12, 0x3FC8722191A02D60
  %17 = fmul double %16, -5.000000e-01
  br label %18

18:                                               ; preds = %11, %18
  %indvars.iv = phi i64 [ 0, %11 ], [ %indvars.iv.next, %18 ]
  %.040 = phi double [ 0x3FD41B2F769CF0E0, %11 ], [ %33, %18 ]
  %19 = tail call double @cos(double noundef %.040) #26, !tbaa !17
  %20 = fmul double %12, %19
  %21 = getelementptr inbounds nuw %struct.pointf_s, ptr %0, i64 %indvars.iv
  store double %20, ptr %21, align 8, !tbaa !16
  %22 = tail call double @sin(double noundef %.040) #26, !tbaa !17
  %23 = tail call double @llvm.fmuladd.f64(double %12, double %22, double %17)
  %24 = getelementptr inbounds nuw i8, ptr %21, i64 8
  store double %23, ptr %24, align 8, !tbaa !14
  %25 = fadd double %.040, 0x3FE41B2F769CF0E0
  %26 = tail call double @cos(double noundef %25) #26, !tbaa !17
  %27 = fmul double %15, %26
  %28 = or disjoint i64 %indvars.iv, 1
  %29 = getelementptr inbounds nuw %struct.pointf_s, ptr %0, i64 %28
  store double %27, ptr %29, align 8, !tbaa !16
  %30 = tail call double @sin(double noundef %25) #26, !tbaa !17
  %31 = tail call double @llvm.fmuladd.f64(double %15, double %30, double %17)
  %32 = getelementptr inbounds nuw i8, ptr %29, i64 8
  store double %31, ptr %32, align 8, !tbaa !14
  %33 = fadd double %25, 0x3FE41B2F769CF0E0
  %indvars.iv.next = add nuw nsw i64 %indvars.iv, 2
  %34 = icmp samesign ult i64 %indvars.iv, 8
  br i1 %34, label %18, label %35, !llvm.loop !225

35:                                               ; preds = %18
  store double %.sroa.0.0, ptr %1, align 8, !tbaa !4
  store double %.sroa.8.0, ptr %.sroa.8.0..sroa_idx, align 8, !tbaa !4
  ret void
}